target datalayout = "e-m:e-p270:32:32-p271:32:32-p272:64:64-i64:64-i128:128-f80:128-n8:16:32:64-S128"
target triple = "x86_64-pc-linux-gnu"

%"class.enki::TaskScheduler" = type <{ [3 x ptr], [3 x ptr], i32, [4 x i8], ptr, ptr, %"struct.std::atomic", %"struct.std::atomic", %"struct.std::atomic", i8, %"struct.std::atomic.0", %"struct.std::atomic.0", %"struct.std::atomic.0", i32, [4 x i8], ptr, ptr, i32, i8, [3 x i8], %"struct.enki::TaskSchedulerConfig", %"struct.std::atomic.0", [4 x i8] }>
%"struct.std::atomic" = type { %"struct.std::__atomic_base" }
%"struct.std::__atomic_base" = type { i8 }
%"struct.enki::TaskSchedulerConfig" = type { i32, i32, %"struct.enki::ProfilerCallbacks", %"struct.enki::CustomAllocator" }
%"struct.enki::ProfilerCallbacks" = type { ptr, ptr, ptr, ptr, ptr, ptr, ptr, ptr }
%"struct.enki::CustomAllocator" = type { ptr, ptr, ptr }
%"struct.std::atomic.0" = type { %"struct.std::__atomic_base.1" }
%"struct.std::__atomic_base.1" = type { i32 }
%"struct.enki::ThreadDataStore" = type { ptr, %"struct.std::atomic.2", i32, [48 x i8] }
%"struct.std::atomic.2" = type { i32 }
%"class.enki::ICompletable" = type { ptr, i32, %"struct.std::atomic.0", %"struct.std::atomic.0", i32, %"struct.std::atomic.0", ptr }
%"class.enki::IPinnedTask" = type { %"class.enki::ICompletable", i32, %"struct.std::atomic.5" }
%"struct.std::atomic.5" = type { %"struct.std::__atomic_base.6" }
%"struct.std::__atomic_base.6" = type { ptr }
%"class.enki::PinnedTaskList" = type { %"class.enki::LocklessMultiWriteIntrusiveList" }
%"class.enki::LocklessMultiWriteIntrusiveList" = type { %"struct.std::atomic.5", %"class.enki::IPinnedTask" }
%"struct.enki::semaphoreid_t" = type { %union.sem_t }
%union.sem_t = type { i64, [24 x i8] }

@_ZL13gtl_threadNum = internal thread_local global i32 -1, align 4

; Function Attrs: mustprogress nounwind uwtable
define linkonce_odr dso_local noundef i32 @_ZStanSt12memory_orderSt23__memory_order_modifier(i32 noundef %0, i32 noundef %1) #5 comdat {
  %3 = alloca i32, align 4
  %4 = alloca i32, align 4
  store i32 %0, ptr %3, align 4, !tbaa !72
  store i32 %1, ptr %4, align 4, !tbaa !195
  %5 = load i32, ptr %3, align 4, !tbaa !72
  %6 = load i32, ptr %4, align 4, !tbaa !195
  %7 = and i32 %5, %6
  ret i32 %7
}

; Function Attrs: alwaysinline mustprogress nounwind uwtable
define linkonce_odr dso_local noundef ptr @_ZNKSt13__atomic_baseIPN4enki11IPinnedTaskEE4loadESt12memory_order(ptr noundef nonnull align 8 dereferenceable(8) %0, i32 noundef %1) #9 comdat align 2 {
  %3 = alloca ptr, align 8
  %4 = alloca i32, align 4
  %5 = alloca i32, align 4
  %6 = alloca ptr, align 8
  store ptr %0, ptr %3, align 8, !tbaa !204
  store i32 %1, ptr %4, align 4, !tbaa !72
  %7 = load ptr, ptr %3, align 8
  call void @llvm.lifetime.start.p0(i64 4, ptr %5) #14
  %8 = load i32, ptr %4, align 4, !tbaa !72
  %9 = call noundef i32 @_ZStanSt12memory_orderSt23__memory_order_modifier(i32 noundef %8, i32 noundef 65535)
  store i32 %9, ptr %5, align 4, !tbaa !72
  br label %10

10:                                               ; preds = %2
  br label %11

11:                                               ; preds = %10
  br label %12

12:                                               ; preds = %11
  br label %13

13:                                               ; preds = %12
  br label %14

14:                                               ; preds = %13
  br label %15

15:                                               ; preds = %14
  %16 = getelementptr inbounds nuw %"struct.std::__atomic_base.6", ptr %7, i32 0, i32 0
  %17 = load i32, ptr %4, align 4, !tbaa !72
  switch i32 %17, label %18 [
    i32 1, label %20
    i32 2, label %20
    i32 5, label %22
  ]

18:                                               ; preds = %15
  %19 = load atomic i64, ptr %16 monotonic, align 8
  store i64 %19, ptr %6, align 8
  br label %24

20:                                               ; preds = %15, %15
  %21 = load atomic i64, ptr %16 acquire, align 8
  store i64 %21, ptr %6, align 8
  br label %24

22:                                               ; preds = %15
  %23 = load atomic i64, ptr %16 seq_cst, align 8
  store i64 %23, ptr %6, align 8
  br label %24

24:                                               ; preds = %22, %20, %18
  %25 = load ptr, ptr %6, align 8, !tbaa !42
  call void @llvm.lifetime.end.p0(i64 4, ptr %5) #14
  ret ptr %25
}

; Function Attrs: mustprogress nounwind uwtable
define linkonce_odr dso_local noundef ptr @_ZNKSt13__atomic_baseIPN4enki11IPinnedTaskEEcvS2_Ev(ptr noundef nonnull align 8 dereferenceable(8) %0) #5 comdat align 2 {
  %2 = alloca ptr, align 8
  store ptr %0, ptr %2, align 8, !tbaa !204
  %3 = load ptr, ptr %2, align 8
  %4 = call noundef ptr @_ZNKSt13__atomic_baseIPN4enki11IPinnedTaskEE4loadESt12memory_order(ptr noundef nonnull align 8 dereferenceable(8) %3, i32 noundef 5) #14
  ret ptr %4
}

; Function Attrs: mustprogress nounwind uwtable
define linkonce_odr dso_local noundef ptr @_ZNKSt6atomicIPN4enki11IPinnedTaskEEcvS2_Ev(ptr noundef nonnull align 8 dereferenceable(8) %0) #5 comdat align 2 {
  %2 = alloca ptr, align 8
  store ptr %0, ptr %2, align 8, !tbaa !202
  %3 = load ptr, ptr %2, align 8
  %4 = getelementptr inbounds nuw %"struct.std::atomic.5", ptr %3, i32 0, i32 0
  %5 = call noundef ptr @_ZNKSt13__atomic_baseIPN4enki11IPinnedTaskEEcvS2_Ev(ptr noundef nonnull align 8 dereferenceable(8) %4) #14
  ret ptr %5
}

; Function Attrs: inlinehint mustprogress uwtable
define linkonce_odr dso_local void @_ZN4enki13SemaphoreWaitERNS_13semaphoreid_tE(ptr noundef nonnull align 1 %0) #1 comdat {
  %2 = alloca ptr, align 8
  store ptr %0, ptr %2, align 8, !tbaa !106
  br label %3

3:                                                ; preds = %14, %1
  %4 = load ptr, ptr %2, align 8, !tbaa !106
  %5 = getelementptr inbounds nuw %"struct.enki::semaphoreid_t", ptr %4, i32 0, i32 0
  %6 = call i32 @sem_wait(ptr noundef %5)
  %7 = icmp eq i32 %6, -1
  br i1 %7, label %8, label %12

8:                                                ; preds = %3
  %9 = call ptr @__errno_location() #22
  %10 = load i32, ptr %9, align 4, !tbaa !11
  %11 = icmp eq i32 %10, 4
  br label %12

12:                                               ; preds = %8, %3
  %13 = phi i1 [ false, %3 ], [ %11, %8 ]
  br i1 %13, label %14, label %15

14:                                               ; preds = %12
  br label %3, !llvm.loop !152

15:                                               ; preds = %12
  ret void
}

; Function Attrs: mustprogress uwtable
define internal void @_ZN12_GLOBAL__N_112SafeCallbackEPFvjEj(ptr noundef %0, i32 noundef %1) #0 {
  %3 = alloca ptr, align 8
  %4 = alloca i32, align 4
  store ptr %0, ptr %3, align 8, !tbaa !58
  store i32 %1, ptr %4, align 4, !tbaa !11
  %5 = load ptr, ptr %3, align 8, !tbaa !58
  %6 = icmp ne ptr %5, null
  br i1 %6, label %7, label %10

7:                                                ; preds = %2
  %8 = load ptr, ptr %3, align 8, !tbaa !58
  %9 = load i32, ptr %4, align 4, !tbaa !11
  call void %8(i32 noundef %9)
  br label %10

10:                                               ; preds = %7, %2
  ret void
}

; Function Attrs: mustprogress nounwind uwtable
define linkonce_odr dso_local noundef zeroext i1 @_ZNK4enki31LocklessMultiWriteIntrusiveListINS_11IPinnedTaskEE11IsListEmptyEv(ptr noundef nonnull align 8 dereferenceable(64) %0) #5 comdat align 2 {
  %2 = alloca ptr, align 8
  store ptr %0, ptr %2, align 8, !tbaa !148
  %3 = load ptr, ptr %2, align 8
  %4 = getelementptr inbounds nuw %"class.enki::LocklessMultiWriteIntrusiveList", ptr %3, i32 0, i32 0
  %5 = call noundef ptr @_ZNKSt6atomicIPN4enki11IPinnedTaskEEcvS2_Ev(ptr noundef nonnull align 8 dereferenceable(8) %4) #14
  %6 = getelementptr inbounds nuw %"class.enki::LocklessMultiWriteIntrusiveList", ptr %3, i32 0, i32 1
  %7 = icmp eq ptr %5, %6
  ret i1 %7
}

; Function Attrs: mustprogress nounwind uwtable
define linkonce_odr dso_local void @_ZNSt6atomicIN4enki11ThreadStateEE5storeES1_St12memory_order(ptr noundef nonnull align 4 dereferenceable(4) %0, i32 noundef %1, i32 noundef %2) #5 comdat align 2 {
  %4 = alloca ptr, align 8
  %5 = alloca i32, align 4
  %6 = alloca i32, align 4
  store ptr %0, ptr %4, align 8, !tbaa !70
  store i32 %1, ptr %5, align 4, !tbaa !26
  store i32 %2, ptr %6, align 4, !tbaa !72
  %7 = load ptr, ptr %4, align 8
  %8 = getelementptr inbounds nuw %"struct.std::atomic.2", ptr %7, i32 0, i32 0
  %9 = load i32, ptr %6, align 4, !tbaa !72
  switch i32 %9, label %10 [
    i32 3, label %12
    i32 5, label %14
  ]

10:                                               ; preds = %3
  %11 = load i32, ptr %5, align 4
  store atomic i32 %11, ptr %8 monotonic, align 4
  br label %16

12:                                               ; preds = %3
  %13 = load i32, ptr %5, align 4
  store atomic i32 %13, ptr %8 release, align 4
  br label %16

14:                                               ; preds = %3
  %15 = load i32, ptr %5, align 4
  store atomic i32 %15, ptr %8 seq_cst, align 4
  br label %16

16:                                               ; preds = %14, %12, %10
  ret void
}

; Function Attrs: mustprogress nounwind uwtable
define linkonce_odr dso_local noundef i32 @_ZNKSt6atomicIN4enki11ThreadStateEE4loadESt12memory_order(ptr noundef nonnull align 4 dereferenceable(4) %0, i32 noundef %1) #5 comdat align 2 {
  %3 = alloca ptr, align 8
  %4 = alloca i32, align 4
  %5 = alloca [4 x i8], align 4
  %6 = alloca ptr, align 8
  store ptr %0, ptr %3, align 8, !tbaa !70
  store i32 %1, ptr %4, align 4, !tbaa !72
  %7 = load ptr, ptr %3, align 8
  call void @llvm.lifetime.start.p0(i64 4, ptr %5) #14
  call void @llvm.lifetime.start.p0(i64 8, ptr %6) #14
  %8 = getelementptr inbounds [4 x i8], ptr %5, i64 0, i64 0
  store ptr %8, ptr %6, align 8, !tbaa !58
  %9 = getelementptr inbounds nuw %"struct.std::atomic.2", ptr %7, i32 0, i32 0
  %10 = load i32, ptr %4, align 4, !tbaa !72
  %11 = load ptr, ptr %6, align 8, !tbaa !58
  switch i32 %10, label %12 [
    i32 1, label %14
    i32 2, label %14
    i32 5, label %16
  ]

12:                                               ; preds = %2
  %13 = load atomic i32, ptr %9 monotonic, align 4
  store i32 %13, ptr %11, align 4
  br label %18

14:                                               ; preds = %2, %2
  %15 = load atomic i32, ptr %9 acquire, align 4
  store i32 %15, ptr %11, align 4
  br label %18

16:                                               ; preds = %2
  %17 = load atomic i32, ptr %9 seq_cst, align 4
  store i32 %17, ptr %11, align 4
  br label %18

18:                                               ; preds = %16, %14, %12
  %19 = load ptr, ptr %6, align 8, !tbaa !58
  %20 = load i32, ptr %19, align 4, !tbaa !26
  call void @llvm.lifetime.end.p0(i64 8, ptr %6) #14
  call void @llvm.lifetime.end.p0(i64 4, ptr %5) #14
  ret i32 %20
}

; Function Attrs: mustprogress uwtable
define dso_local void @_ZN4enki13TaskScheduler21WaitForNewPinnedTasksEv(ptr noundef nonnull align 8 dereferenceable(220) %0) #0 align 2 {
  %2 = alloca ptr, align 8
  %3 = alloca i32, align 4
  %4 = alloca i32, align 4
  %5 = alloca i8, align 1
  %6 = alloca i32, align 4
  %7 = alloca i32, align 4
  store ptr %0, ptr %2, align 8, !tbaa !4
  %8 = load ptr, ptr %2, align 8
  call void @llvm.lifetime.start.p0(i64 4, ptr %3) #14
  %9 = call align 4 ptr @llvm.threadlocal.address.p0(ptr align 4 @_ZL13gtl_threadNum)
  %10 = load i32, ptr %9, align 4, !tbaa !11
  store i32 %10, ptr %3, align 4, !tbaa !11
  call void @llvm.lifetime.start.p0(i64 4, ptr %4) #14
  %11 = getelementptr inbounds nuw %"class.enki::TaskScheduler", ptr %8, i32 0, i32 4
  %12 = load ptr, ptr %11, align 8, !tbaa !13
  %13 = load i32, ptr %3, align 4, !tbaa !11
  %14 = zext i32 %13 to i64
  %15 = getelementptr inbounds nuw %"struct.enki::ThreadDataStore", ptr %12, i64 %14
  %16 = getelementptr inbounds nuw %"struct.enki::ThreadDataStore", ptr %15, i32 0, i32 1
  %17 = call noundef i32 @_ZNKSt6atomicIN4enki11ThreadStateEE4loadESt12memory_order(ptr noundef nonnull align 4 dereferenceable(4) %16, i32 noundef 0) #14
  store i32 %17, ptr %4, align 4, !tbaa !26
  %18 = getelementptr inbounds nuw %"class.enki::TaskScheduler", ptr %8, i32 0, i32 4
  %19 = load ptr, ptr %18, align 8, !tbaa !13
  %20 = load i32, ptr %3, align 4, !tbaa !11
  %21 = zext i32 %20 to i64
  %22 = getelementptr inbounds nuw %"struct.enki::ThreadDataStore", ptr %19, i64 %21
  %23 = getelementptr inbounds nuw %"struct.enki::ThreadDataStore", ptr %22, i32 0, i32 1
  call void @_ZNSt6atomicIN4enki11ThreadStateEE5storeES1_St12memory_order(ptr noundef nonnull align 4 dereferenceable(4) %23, i32 noundef 8, i32 noundef 5) #14
  call void @llvm.lifetime.start.p0(i64 1, ptr %5) #14
  store i8 0, ptr %5, align 1, !tbaa !61
  call void @llvm.lifetime.start.p0(i64 4, ptr %6) #14
  store i32 0, ptr %6, align 4, !tbaa !11
  br label %24

24:                                               ; preds = %40, %1
  %25 = load i32, ptr %6, align 4, !tbaa !11
  %26 = icmp slt i32 %25, 3
  br i1 %26, label %28, label %27

27:                                               ; preds = %24
  store i32 2, ptr %7, align 4
  br label %43

28:                                               ; preds = %24
  %29 = getelementptr inbounds nuw %"class.enki::TaskScheduler", ptr %8, i32 0, i32 1
  %30 = load i32, ptr %6, align 4, !tbaa !11
  %31 = sext i32 %30 to i64
  %32 = getelementptr inbounds [3 x ptr], ptr %29, i64 0, i64 %31
  %33 = load ptr, ptr %32, align 8, !tbaa !45
  %34 = load i32, ptr %3, align 4, !tbaa !11
  %35 = zext i32 %34 to i64
  %36 = getelementptr inbounds nuw %"class.enki::PinnedTaskList", ptr %33, i64 %35
  %37 = call noundef zeroext i1 @_ZNK4enki31LocklessMultiWriteIntrusiveListINS_11IPinnedTaskEE11IsListEmptyEv(ptr noundef nonnull align 8 dereferenceable(64) %36)
  br i1 %37, label %39, label %38

38:                                               ; preds = %28
  store i8 1, ptr %5, align 1, !tbaa !61
  store i32 2, ptr %7, align 4
  br label %43

39:                                               ; preds = %28
  br label %40

40:                                               ; preds = %39
  %41 = load i32, ptr %6, align 4, !tbaa !11
  %42 = add nsw i32 %41, 1
  store i32 %42, ptr %6, align 4, !tbaa !11
  br label %24, !llvm.loop !171

43:                                               ; preds = %38, %27
  call void @llvm.lifetime.end.p0(i64 4, ptr %6) #14
  br label %44

44:                                               ; preds = %43
  %45 = load i8, ptr %5, align 1, !tbaa !61, !range !62, !noundef !63
  %46 = trunc i8 %45 to i1
  br i1 %46, label %65, label %47

47:                                               ; preds = %44
  %48 = getelementptr inbounds nuw %"class.enki::TaskScheduler", ptr %8, i32 0, i32 20
  %49 = getelementptr inbounds nuw %"struct.enki::TaskSchedulerConfig", ptr %48, i32 0, i32 2
  %50 = getelementptr inbounds nuw %"struct.enki::ProfilerCallbacks", ptr %49, i32 0, i32 2
  %51 = load ptr, ptr %50, align 8, !tbaa !85
  %52 = load i32, ptr %3, align 4, !tbaa !11
  call void @_ZN12_GLOBAL__N_112SafeCallbackEPFvjEj(ptr noundef %51, i32 noundef %52)
  %53 = getelementptr inbounds nuw %"class.enki::TaskScheduler", ptr %8, i32 0, i32 4
  %54 = load ptr, ptr %53, align 8, !tbaa !13
  %55 = load i32, ptr %3, align 4, !tbaa !11
  %56 = zext i32 %55 to i64
  %57 = getelementptr inbounds nuw %"struct.enki::ThreadDataStore", ptr %54, i64 %56
  %58 = getelementptr inbounds nuw %"struct.enki::ThreadDataStore", ptr %57, i32 0, i32 0
  %59 = load ptr, ptr %58, align 64, !tbaa !51
  call void @_ZN4enki13SemaphoreWaitERNS_13semaphoreid_tE(ptr noundef nonnull align 1 %59)
  %60 = getelementptr inbounds nuw %"class.enki::TaskScheduler", ptr %8, i32 0, i32 20
  %61 = getelementptr inbounds nuw %"struct.enki::TaskSchedulerConfig", ptr %60, i32 0, i32 2
  %62 = getelementptr inbounds nuw %"struct.enki::ProfilerCallbacks", ptr %61, i32 0, i32 3
  %63 = load ptr, ptr %62, align 8, !tbaa !87
  %64 = load i32, ptr %3, align 4, !tbaa !11
  call void @_ZN12_GLOBAL__N_112SafeCallbackEPFvjEj(ptr noundef %63, i32 noundef %64)
  br label %65

65:                                               ; preds = %47, %44
  %66 = getelementptr inbounds nuw %"class.enki::TaskScheduler", ptr %8, i32 0, i32 4
  %67 = load ptr, ptr %66, align 8, !tbaa !13
  %68 = load i32, ptr %3, align 4, !tbaa !11
  %69 = zext i32 %68 to i64
  %70 = getelementptr inbounds nuw %"struct.enki::ThreadDataStore", ptr %67, i64 %69
  %71 = getelementptr inbounds nuw %"struct.enki::ThreadDataStore", ptr %70, i32 0, i32 1
  %72 = load i32, ptr %4, align 4, !tbaa !26
  call void @_ZNSt6atomicIN4enki11ThreadStateEE5storeES1_St12memory_order(ptr noundef nonnull align 4 dereferenceable(4) %71, i32 noundef %72, i32 noundef 3) #14
  call void @llvm.lifetime.end.p0(i64 1, ptr %5) #14
  call void @llvm.lifetime.end.p0(i64 4, ptr %4) #14
  call void @llvm.lifetime.end.p0(i64 4, ptr %3) #14
  ret void
}