; Function Attrs: mustprogress uwtable
define dso_local void @_ZN4enki13TaskScheduler21WaitForNewPinnedTasksEv(ptr noundef nonnull readonly align 8 captures(none) dereferenceable(220) %0) local_unnamed_addr #0 align 2 {
  %2 = tail call align 4 ptr @llvm.threadlocal.address.p0(ptr align 4 @_ZL13gtl_threadNum)
  %3 = load i32, ptr %2, align 4, !tbaa !27
  %4 = getelementptr inbounds nuw i8, ptr %0, i64 56
  %5 = load ptr, ptr %4, align 8, !tbaa !4
  %6 = zext i32 %3 to i64
  %7 = getelementptr inbounds nuw %"struct.enki::ThreadDataStore", ptr %5, i64 %6, i32 1
  %8 = load atomic i32, ptr %7 monotonic, align 4
  store atomic i32 8, ptr %7 seq_cst, align 4
  %9 = getelementptr inbounds nuw i8, ptr %0, i64 24
  br label %11

10:                                               ; preds = %11
  %indvars.iv.next = add nuw nsw i64 %indvars.iv, 1
  %exitcond.not = icmp eq i64 %indvars.iv.next, 3
  br i1 %exitcond.not, label %.critedge, label %11, !llvm.loop !136

11:                                               ; preds = %1, %10
  %indvars.iv = phi i64 [ 0, %1 ], [ %indvars.iv.next, %10 ]
  %12 = getelementptr inbounds nuw [3 x ptr], ptr %9, i64 0, i64 %indvars.iv
  %13 = load ptr, ptr %12, align 8, !tbaa !44
  %14 = getelementptr inbounds nuw %"class.enki::PinnedTaskList", ptr %13, i64 %6
  %15 = load atomic i64, ptr %14 seq_cst, align 8
  %.0.i.i.i.i = inttoptr i64 %15 to ptr
  %16 = getelementptr inbounds nuw i8, ptr %14, i64 8
  %17 = icmp eq ptr %16, %.0.i.i.i.i
  br i1 %17, label %10, label %_ZN12_GLOBAL__N_112SafeCallbackEPFvjEj.exit14

.critedge:                                        ; preds = %10
  %18 = getelementptr inbounds nuw i8, ptr %0, i64 144
  %19 = load ptr, ptr %18, align 8, !tbaa !76
  %.not.i = icmp eq ptr %19, null
  br i1 %.not.i, label %_ZN12_GLOBAL__N_112SafeCallbackEPFvjEj.exit, label %20

20:                                               ; preds = %.critedge
  tail call void %19(i32 noundef %3)
  br label %_ZN12_GLOBAL__N_112SafeCallbackEPFvjEj.exit

_ZN12_GLOBAL__N_112SafeCallbackEPFvjEj.exit:      ; preds = %.critedge, %20
  %21 = load ptr, ptr %4, align 8, !tbaa !4
  %22 = getelementptr inbounds nuw %"struct.enki::ThreadDataStore", ptr %21, i64 %6
  %23 = load ptr, ptr %22, align 64, !tbaa !51
  br label %24

24:                                               ; preds = %27, %_ZN12_GLOBAL__N_112SafeCallbackEPFvjEj.exit
  %25 = tail call i32 @sem_wait(ptr noundef nonnull align 1 %23)
  %26 = icmp eq i32 %25, -1
  br i1 %26, label %27, label %_ZN4enki13SemaphoreWaitERNS_13semaphoreid_tE.exit

27:                                               ; preds = %24
  %28 = tail call ptr @__errno_location() #32
  %29 = load i32, ptr %28, align 4, !tbaa !27
  %30 = icmp eq i32 %29, 4
  br i1 %30, label %24, label %_ZN4enki13SemaphoreWaitERNS_13semaphoreid_tE.exit, !llvm.loop !77

_ZN4enki13SemaphoreWaitERNS_13semaphoreid_tE.exit: ; preds = %24, %27
  %31 = getelementptr inbounds nuw i8, ptr %0, i64 152
  %32 = load ptr, ptr %31, align 8, !tbaa !78
  %.not.i13 = icmp eq ptr %32, null
  br i1 %.not.i13, label %_ZN12_GLOBAL__N_112SafeCallbackEPFvjEj.exit14, label %33

33:                                               ; preds = %_ZN4enki13SemaphoreWaitERNS_13semaphoreid_tE.exit
  tail call void %32(i32 noundef %3)
  br label %_ZN12_GLOBAL__N_112SafeCallbackEPFvjEj.exit14

_ZN12_GLOBAL__N_112SafeCallbackEPFvjEj.exit14:    ; preds = %11, %33, %_ZN4enki13SemaphoreWaitERNS_13semaphoreid_tE.exit
  %34 = load ptr, ptr %4, align 8, !tbaa !4
  %35 = getelementptr inbounds nuw %"struct.enki::ThreadDataStore", ptr %34, i64 %6, i32 1
  store atomic i32 %8, ptr %35 release, align 4
  ret void
}